; Function Attrs: mustprogress uwtable
define internal noundef ptr @_ZL23cmSourceFileGetPropertyPvPKc(ptr noundef %0, ptr noundef %1) #6 personality ptr @__gxx_personality_v0 {
  %3 = alloca %"class.std::__cxx11::basic_string", align 8
  %4 = alloca %"class.std::allocator", align 1
  %5 = alloca %"class.std::__cxx11::basic_string", align 8
  %6 = alloca %"class.std::allocator", align 1
  %7 = load ptr, ptr %0, align 8
  %.not = icmp eq ptr %7, null
  br i1 %.not, label %28, label %8

8:                                                ; preds = %2
  call void @_ZNSaIcEC1Ev(ptr noundef nonnull align 1 dereferenceable(1) %4) #30
  %9 = invoke noundef ptr @_ZNSt7__cxx1112basic_stringIcSt11char_traitsIcESaIcEE13_M_local_dataEv(ptr noundef nonnull align 8 dereferenceable(32) %3)
          to label %.noexc unwind label %24

.noexc:                                           ; preds = %8
  invoke void @_ZNSt7__cxx1112basic_stringIcSt11char_traitsIcESaIcEE12_Alloc_hiderC1EPcRKS3_(ptr noundef nonnull align 8 dereferenceable(8) %3, ptr noundef %9, ptr noundef nonnull align 1 dereferenceable(1) %4)
          to label %.noexc21 unwind label %24

.noexc21:                                         ; preds = %.noexc
  %10 = icmp eq ptr %1, null
  br i1 %10, label %11, label %15

11:                                               ; preds = %.noexc21
  invoke void @_ZSt19__throw_logic_errorPKc(ptr noundef nonnull @.str.14) #35
          to label %12 unwind label %13

12:                                               ; preds = %11
  unreachable

13:                                               ; preds = %15, %11
  %14 = landingpad { ptr, i32 }
          cleanup
  call void @_ZNSaIcED2Ev(ptr noundef nonnull align 1 dereferenceable(1) %3) #30
  br label %.body

15:                                               ; preds = %.noexc21
  %16 = call noundef i64 @strlen(ptr noundef nonnull dereferenceable(1) %1) #30
  %17 = getelementptr inbounds i8, ptr %1, i64 %16
  invoke void @_ZNSt7__cxx1112basic_stringIcSt11char_traitsIcESaIcEE12_M_constructIPKcEEvT_S8_St20forward_iterator_tag(ptr noundef nonnull align 8 dereferenceable(32) %3, ptr noundef nonnull %1, ptr noundef nonnull %17)
          to label %_ZNSt7__cxx1112basic_stringIcSt11char_traitsIcESaIcEEC2IS3_EEPKcRKS3_.exit unwind label %13

_ZNSt7__cxx1112basic_stringIcSt11char_traitsIcESaIcEEC2IS3_EEPKcRKS3_.exit: ; preds = %15
  %18 = invoke ptr @_ZNK12cmSourceFile11GetPropertyERKNSt7__cxx1112basic_stringIcSt11char_traitsIcESaIcEEE(ptr noundef nonnull align 8 dereferenceable(370) %7, ptr noundef nonnull align 8 dereferenceable(32) %3)
          to label %19 unwind label %26

19:                                               ; preds = %_ZNSt7__cxx1112basic_stringIcSt11char_traitsIcESaIcEEC2IS3_EEPKcRKS3_.exit
  %20 = icmp eq ptr %18, null
  br i1 %20, label %_ZNK7cmValue7GetCStrEv.exit, label %21

21:                                               ; preds = %19
  %22 = call noundef ptr @_ZNKSt7__cxx1112basic_stringIcSt11char_traitsIcESaIcEE5c_strEv(ptr noundef nonnull align 8 dereferenceable(32) %18) #30
  br label %_ZNK7cmValue7GetCStrEv.exit

_ZNK7cmValue7GetCStrEv.exit:                      ; preds = %19, %21
  %23 = phi ptr [ %22, %21 ], [ null, %19 ]
  call void @_ZNSt7__cxx1112basic_stringIcSt11char_traitsIcESaIcEED1Ev(ptr noundef nonnull align 8 dereferenceable(32) %3) #30
  call void @_ZNSaIcED1Ev(ptr noundef nonnull align 1 dereferenceable(1) %4) #30
  br label %54

24:                                               ; preds = %.noexc, %8
  %25 = landingpad { ptr, i32 }
          cleanup
  br label %.body

26:                                               ; preds = %_ZNSt7__cxx1112basic_stringIcSt11char_traitsIcESaIcEEC2IS3_EEPKcRKS3_.exit
  %27 = landingpad { ptr, i32 }
          cleanup
  call void @_ZNSt7__cxx1112basic_stringIcSt11char_traitsIcESaIcEED1Ev(ptr noundef nonnull align 8 dereferenceable(32) %3) #30
  br label %.body

28:                                               ; preds = %2
  %29 = tail call i32 @strcmp(ptr noundef nonnull dereferenceable(1) %1, ptr noundef nonnull dereferenceable(9) @.str.30) #34
  %.not16 = icmp eq i32 %29, 0
  br i1 %.not16, label %30, label %33

30:                                               ; preds = %28
  %31 = getelementptr inbounds i8, ptr %0, i64 72
  %32 = tail call noundef ptr @_ZNKSt7__cxx1112basic_stringIcSt11char_traitsIcESaIcEE5c_strEv(ptr noundef nonnull align 8 dereferenceable(32) %31) #30
  br label %54

33:                                               ; preds = %28
  call void @_ZNSaIcEC1Ev(ptr noundef nonnull align 1 dereferenceable(1) %6) #30
  %34 = invoke noundef ptr @_ZNSt7__cxx1112basic_stringIcSt11char_traitsIcESaIcEE13_M_local_dataEv(ptr noundef nonnull align 8 dereferenceable(32) %5)
          to label %.noexc22 unwind label %50

.noexc22:                                         ; preds = %33
  invoke void @_ZNSt7__cxx1112basic_stringIcSt11char_traitsIcESaIcEE12_Alloc_hiderC1EPcRKS3_(ptr noundef nonnull align 8 dereferenceable(8) %5, ptr noundef %34, ptr noundef nonnull align 1 dereferenceable(1) %6)
          to label %.noexc23 unwind label %50

.noexc23:                                         ; preds = %.noexc22
  %35 = icmp eq ptr %1, null
  br i1 %35, label %36, label %40

36:                                               ; preds = %.noexc23
  invoke void @_ZSt19__throw_logic_errorPKc(ptr noundef nonnull @.str.14) #35
          to label %37 unwind label %38

37:                                               ; preds = %36
  unreachable

38:                                               ; preds = %40, %36
  %39 = landingpad { ptr, i32 }
          cleanup
  call void @_ZNSaIcED2Ev(ptr noundef nonnull align 1 dereferenceable(1) %5) #30
  br label %.body

40:                                               ; preds = %.noexc23
  %41 = call noundef i64 @strlen(ptr noundef nonnull dereferenceable(1) %1) #30
  %42 = getelementptr inbounds i8, ptr %1, i64 %41
  invoke void @_ZNSt7__cxx1112basic_stringIcSt11char_traitsIcESaIcEE12_M_constructIPKcEEvT_S8_St20forward_iterator_tag(ptr noundef nonnull align 8 dereferenceable(32) %5, ptr noundef nonnull %1, ptr noundef nonnull %42)
          to label %_ZNSt7__cxx1112basic_stringIcSt11char_traitsIcESaIcEEC2IS3_EEPKcRKS3_.exit26 unwind label %38

_ZNSt7__cxx1112basic_stringIcSt11char_traitsIcESaIcEEC2IS3_EEPKcRKS3_.exit26: ; preds = %40
  %43 = getelementptr inbounds i8, ptr %0, i64 128
  %44 = invoke ptr @_ZNK13cmPropertyMap16GetPropertyValueERKNSt7__cxx1112basic_stringIcSt11char_traitsIcESaIcEEE(ptr noundef nonnull align 8 dereferenceable(56) %43, ptr noundef nonnull align 8 dereferenceable(32) %5)
          to label %45 unwind label %52

45:                                               ; preds = %_ZNSt7__cxx1112basic_stringIcSt11char_traitsIcESaIcEEC2IS3_EEPKcRKS3_.exit26
  %46 = icmp eq ptr %44, null
  br i1 %46, label %_ZNK7cmValue7GetCStrEv.exit27, label %47

47:                                               ; preds = %45
  %48 = call noundef ptr @_ZNKSt7__cxx1112basic_stringIcSt11char_traitsIcESaIcEE5c_strEv(ptr noundef nonnull align 8 dereferenceable(32) %44) #30
  br label %_ZNK7cmValue7GetCStrEv.exit27

_ZNK7cmValue7GetCStrEv.exit27:                    ; preds = %45, %47
  %49 = phi ptr [ %48, %47 ], [ null, %45 ]
  call void @_ZNSt7__cxx1112basic_stringIcSt11char_traitsIcESaIcEED1Ev(ptr noundef nonnull align 8 dereferenceable(32) %5) #30
  call void @_ZNSaIcED1Ev(ptr noundef nonnull align 1 dereferenceable(1) %6) #30
  br label %54

50:                                               ; preds = %.noexc22, %33
  %51 = landingpad { ptr, i32 }
          cleanup
  br label %.body

52:                                               ; preds = %_ZNSt7__cxx1112basic_stringIcSt11char_traitsIcESaIcEEC2IS3_EEPKcRKS3_.exit26
  %53 = landingpad { ptr, i32 }
          cleanup
  call void @_ZNSt7__cxx1112basic_stringIcSt11char_traitsIcESaIcEED1Ev(ptr noundef nonnull align 8 dereferenceable(32) %5) #30
  br label %.body

54:                                               ; preds = %_ZNK7cmValue7GetCStrEv.exit27, %30, %_ZNK7cmValue7GetCStrEv.exit
  %.014 = phi ptr [ %23, %_ZNK7cmValue7GetCStrEv.exit ], [ %49, %_ZNK7cmValue7GetCStrEv.exit27 ], [ %32, %30 ]
  ret ptr %.014

.body:                                            ; preds = %52, %38, %50, %26, %13, %24
  %.sink = phi ptr [ %4, %24 ], [ %4, %13 ], [ %4, %26 ], [ %6, %50 ], [ %6, %38 ], [ %6, %52 ]
  %.pn18.pn = phi { ptr, i32 } [ %25, %24 ], [ %14, %13 ], [ %27, %26 ], [ %51, %50 ], [ %39, %38 ], [ %53, %52 ]
  call void @_ZNSaIcED1Ev(ptr noundef nonnull align 1 dereferenceable(1) %.sink) #30
  resume { ptr, i32 } %.pn18.pn
}